; Function Attrs: nounwind sspstrong uwtable
define dso_local void @tcg_gen_discard_i64(ptr noundef %0) local_unnamed_addr #2 {
  %2 = tail call align 8 ptr @llvm.threadlocal.address.p0(ptr align 8 @tcg_ctx)
  %3 = load ptr, ptr %2, align 8
  %4 = ptrtoint ptr %0 to i64
  %5 = getelementptr inbounds nuw i8, ptr %3, i64 %4
  %6 = ptrtoint ptr %5 to i64
  %7 = tail call ptr @tcg_gen_op1(i32 noundef 0, i32 noundef 1, i64 noundef %6)
  ret void
}